; Function Attrs: mustprogress nofree norecurse nosync nounwind memory(read, argmem: readwrite, inaccessiblemem: none) uwtable
define void @_ZN3g2o17JacobianWorkspace10updateSizeEPKNS_10HyperGraph4EdgeEb(ptr noundef nonnull align 8 captures(none) dereferenceable(32) %0, ptr noundef readonly captures(none) %1, i1 noundef zeroext %2) local_unnamed_addr #8 align 2 {
  br i1 %2, label %4, label %7

4:                                                ; preds = %3
  %5 = getelementptr inbounds nuw i8, ptr %0, i64 24
  store i32 -1, ptr %5, align 8, !tbaa !3
  %6 = getelementptr inbounds nuw i8, ptr %0, i64 28
  store i32 -1, ptr %6, align 4, !tbaa !14
  br label %7

7:                                                ; preds = %4, %3
  %8 = getelementptr inbounds nuw i8, ptr %1, i64 56
  %9 = load i32, ptr %8, align 8, !tbaa !31
  %10 = getelementptr inbounds nuw i8, ptr %1, i64 8
  %11 = getelementptr inbounds nuw i8, ptr %1, i64 16
  %12 = load ptr, ptr %11, align 8, !tbaa !59
  %13 = load ptr, ptr %10, align 8, !tbaa !60
  %.not25.i = icmp eq ptr %13, %12
  br i1 %.not25.i, label %_ZN3g2o17JacobianWorkspace10updateSizeEPKNS_10HyperGraph4EdgeE.exit, label %.lr.ph.i

.lr.ph.i:                                         ; preds = %7, %.lr.ph.i
  %.027.i = phi i32 [ %.sroa.speculated.i, %.lr.ph.i ], [ -1, %7 ]
  %.sroa.012.026.i = phi ptr [ %18, %.lr.ph.i ], [ %13, %7 ]
  %14 = load ptr, ptr %.sroa.012.026.i, align 8, !tbaa !61
  %15 = getelementptr inbounds nuw i8, ptr %14, i64 104
  %16 = load i32, ptr %15, align 8, !tbaa !63
  %17 = mul nsw i32 %16, %9
  %.sroa.speculated.i = tail call i32 @llvm.smax.i32(i32 %17, i32 %.027.i)
  %18 = getelementptr inbounds nuw i8, ptr %.sroa.012.026.i, i64 8
  %.not.i = icmp eq ptr %18, %12
  br i1 %.not.i, label %_ZN3g2o17JacobianWorkspace10updateSizeEPKNS_10HyperGraph4EdgeE.exit, label %.lr.ph.i

_ZN3g2o17JacobianWorkspace10updateSizeEPKNS_10HyperGraph4EdgeE.exit: ; preds = %.lr.ph.i, %7
  %.0.lcssa.i = phi i32 [ -1, %7 ], [ %.sroa.speculated.i, %.lr.ph.i ]
  %19 = ptrtoint ptr %12 to i64
  %20 = ptrtoint ptr %13 to i64
  %21 = sub i64 %19, %20
  %22 = lshr exact i64 %21, 3
  %23 = trunc i64 %22 to i32
  %24 = getelementptr inbounds nuw i8, ptr %0, i64 24
  %25 = load i32, ptr %24, align 8, !tbaa !79
  %.sroa.speculated22.i = tail call i32 @llvm.smax.i32(i32 %25, i32 %23)
  store i32 %.sroa.speculated22.i, ptr %24, align 8, !tbaa !3
  %26 = getelementptr inbounds nuw i8, ptr %0, i64 28
  %27 = load i32, ptr %26, align 4, !tbaa !79
  %.sroa.speculated17.i = tail call i32 @llvm.smax.i32(i32 %.0.lcssa.i, i32 %27)
  store i32 %.sroa.speculated17.i, ptr %26, align 4, !tbaa !14
  ret void
}